target datalayout = "e-m:e-p270:32:32-p271:32:32-p272:64:64-i64:64-i128:128-f80:128-n8:16:32:64-S128"
target triple = "x86_64-pc-linux-gnu"

@hf_rr_pkt_freq_prm_arfcn = internal global i32 0, align 4
@hf_rr_pkt_freq_prm_dl_freq_plan_id = internal global i32 0, align 4
@hf_rr_pkt_freq_prm_dl_bw = internal global i32 0, align 4
@hf_rr_pkt_freq_prm_ul_freq_dist = internal global i32 0, align 4
@hf_rr_pkt_freq_prm_ul_bw = internal global i32 0, align 4
@hf_rr_pkt_freq_prm_spare = internal global i32 0, align 4
@rr_pkt_freq_prm_arfcn_crumbs = internal constant [3 x { i32, i8, [3 x i8] }] [{ i32, i8, [3 x i8] } { i32 0, i8 8, [3 x i8] zeroinitializer }, { i32, i8, [3 x i8] } { i32 13, i8 3, [3 x i8] zeroinitializer }, { i32, i8, [3 x i8] } zeroinitializer], align 16
@rr_pkt_freq_prm_ul_freq_dist_crumbs = internal constant [3 x { i32, i8, [3 x i8] }] [{ i32, i8, [3 x i8] } { i32 0, i8 1, [3 x i8] zeroinitializer }, { i32, i8, [3 x i8] } { i32 12, i8 4, [3 x i8] zeroinitializer }, { i32, i8, [3 x i8] } zeroinitializer], align 16

; Function Attrs: null_pointer_is_valid sspstrong uwtable
define internal zeroext i16 @gmr1_ie_rr_pkt_freq_prm(ptr noundef %0, ptr noundef %1, ptr noundef %2, i32 noundef %3, i32 noundef %4, ptr noundef %5, i32 noundef %6) #1 {
  %8 = alloca ptr, align 8
  %9 = alloca ptr, align 8
  %10 = alloca ptr, align 8
  %11 = alloca i32, align 4
  %12 = alloca i32, align 4
  %13 = alloca ptr, align 8
  %14 = alloca i32, align 4
  store ptr %0, ptr %8, align 8
  store ptr %1, ptr %9, align 8
  store ptr %2, ptr %10, align 8
  store i32 %3, ptr %11, align 4
  store i32 %4, ptr %12, align 4
  store ptr %5, ptr %13, align 8
  store i32 %6, ptr %14, align 4
  %15 = load ptr, ptr %9, align 8
  %16 = load i32, ptr @hf_rr_pkt_freq_prm_arfcn, align 4
  %17 = load ptr, ptr %8, align 8
  %18 = load i32, ptr %11, align 4
  %19 = shl i32 %18, 3
  %20 = call ptr @proto_tree_add_split_bits_item_ret_val(ptr noundef %15, i32 noundef %16, ptr noundef %17, i32 noundef %19, ptr noundef @rr_pkt_freq_prm_arfcn_crumbs, ptr noundef null)
  %21 = load ptr, ptr %9, align 8
  %22 = load i32, ptr @hf_rr_pkt_freq_prm_dl_freq_plan_id, align 4
  %23 = load ptr, ptr %8, align 8
  %24 = load i32, ptr %11, align 4
  %25 = add i32 %24, 1
  %26 = call ptr @proto_tree_add_item(ptr noundef %21, i32 noundef %22, ptr noundef %23, i32 noundef %25, i32 noundef 1, i32 noundef 0)
  %27 = load ptr, ptr %9, align 8
  %28 = load i32, ptr @hf_rr_pkt_freq_prm_dl_bw, align 4
  %29 = load ptr, ptr %8, align 8
  %30 = load i32, ptr %11, align 4
  %31 = add i32 %30, 1
  %32 = call ptr @proto_tree_add_item(ptr noundef %27, i32 noundef %28, ptr noundef %29, i32 noundef %31, i32 noundef 1, i32 noundef 0)
  %33 = load ptr, ptr %9, align 8
  %34 = load i32, ptr @hf_rr_pkt_freq_prm_ul_freq_dist, align 4
  %35 = load ptr, ptr %8, align 8
  %36 = load i32, ptr %11, align 4
  %37 = add i32 %36, 1
  %38 = shl i32 %37, 3
  %39 = call ptr @proto_tree_add_split_bits_item_ret_val(ptr noundef %33, i32 noundef %34, ptr noundef %35, i32 noundef %38, ptr noundef @rr_pkt_freq_prm_ul_freq_dist_crumbs, ptr noundef null)
  %40 = load ptr, ptr %9, align 8
  %41 = load i32, ptr @hf_rr_pkt_freq_prm_ul_bw, align 4
  %42 = load ptr, ptr %8, align 8
  %43 = load i32, ptr %11, align 4
  %44 = add i32 %43, 2
  %45 = call ptr @proto_tree_add_item(ptr noundef %40, i32 noundef %41, ptr noundef %42, i32 noundef %44, i32 noundef 1, i32 noundef 0)
  %46 = load ptr, ptr %9, align 8
  %47 = load i32, ptr @hf_rr_pkt_freq_prm_spare, align 4
  %48 = load ptr, ptr %8, align 8
  %49 = load i32, ptr %11, align 4
  %50 = add i32 %49, 2
  %51 = call ptr @proto_tree_add_item(ptr noundef %46, i32 noundef %47, ptr noundef %48, i32 noundef %50, i32 noundef 1, i32 noundef 0)
  ret i16 3
}