; Function Attrs: null_pointer_is_valid sspstrong uwtable
define internal noundef zeroext i16 @gmr1_ie_rr_pkt_freq_prm(ptr noundef %0, ptr noundef %1, ptr readnone captures(none) %2, i32 noundef %3, i32 %4, ptr readnone captures(none) %5, i32 %6) #1 {
  %8 = load i32, ptr @hf_rr_pkt_freq_prm_arfcn, align 4
  %9 = shl i32 %3, 3
  %10 = tail call ptr @proto_tree_add_split_bits_item_ret_val(ptr noundef %1, i32 noundef %8, ptr noundef %0, i32 noundef %9, ptr noundef nonnull @rr_pkt_freq_prm_arfcn_crumbs, ptr noundef null)
  %11 = load i32, ptr @hf_rr_pkt_freq_prm_dl_freq_plan_id, align 4
  %12 = add i32 %3, 1
  %13 = tail call ptr @proto_tree_add_item(ptr noundef %1, i32 noundef %11, ptr noundef %0, i32 noundef %12, i32 noundef 1, i32 noundef 0)
  %14 = load i32, ptr @hf_rr_pkt_freq_prm_dl_bw, align 4
  %15 = tail call ptr @proto_tree_add_item(ptr noundef %1, i32 noundef %14, ptr noundef %0, i32 noundef %12, i32 noundef 1, i32 noundef 0)
  %16 = load i32, ptr @hf_rr_pkt_freq_prm_ul_freq_dist, align 4
  %17 = shl i32 %12, 3
  %18 = tail call ptr @proto_tree_add_split_bits_item_ret_val(ptr noundef %1, i32 noundef %16, ptr noundef %0, i32 noundef %17, ptr noundef nonnull @rr_pkt_freq_prm_ul_freq_dist_crumbs, ptr noundef null)
  %19 = load i32, ptr @hf_rr_pkt_freq_prm_ul_bw, align 4
  %20 = add i32 %3, 2
  %21 = tail call ptr @proto_tree_add_item(ptr noundef %1, i32 noundef %19, ptr noundef %0, i32 noundef %20, i32 noundef 1, i32 noundef 0)
  %22 = load i32, ptr @hf_rr_pkt_freq_prm_spare, align 4
  %23 = tail call ptr @proto_tree_add_item(ptr noundef %1, i32 noundef %22, ptr noundef %0, i32 noundef %20, i32 noundef 1, i32 noundef 0)
  ret i16 3
}